target datalayout = "e-m:e-p270:32:32-p271:32:32-p272:64:64-i64:64-i128:128-f80:128-n8:16:32:64-S128"
target triple = "x86_64-pc-linux-gnu"

%struct.record_functions_st = type { ptr, ptr, ptr, ptr, ptr, ptr, ptr, ptr, ptr, ptr, ptr, ptr, ptr, ptr, ptr, ptr, ptr, ptr }
%struct.tls_buffer_st = type { ptr, i64, i64, i64, i64, i32, i32 }
%struct.tls_rl_record_st = type { i32, i32, i64, i64, i64, ptr, ptr, ptr, i16, [8 x i8] }
%struct.ossl_record_layer_st = type { ptr, ptr, i32, i32, i32, i32, i32, ptr, i16, ptr, ptr, ptr, i64, i32, [33 x %struct.tls_buffer_st], i64, i64, %struct.tls_buffer_st, [32 x %struct.tls_rl_record_st], i64, i64, i64, i32, ptr, i64, [8 x i8], i32, i32, i64, i32, ptr, ptr, i64, ptr, ptr, i32, i32, i32, i64, i64, i64, [64 x i8], i32, i32, i32, ptr, ptr, i32, i32, i64, ptr, ptr, %struct.dtls_bitmap_st, %struct.dtls_bitmap_st, i32, ptr, ptr, ptr, ptr, ptr, i64, ptr }
%struct.dtls_bitmap_st = type { i64, [8 x i8] }

@.str = private unnamed_addr constant [43 x i8] c"../openssl/ssl/record/methods/tls_common.c\00", align 1
@__func__.tls_read_record = private unnamed_addr constant [16 x i8] c"tls_read_record\00", align 1

; Function Attrs: nounwind uwtable
define i32 @tls_read_record(ptr noundef %0, ptr noundef %1, ptr noundef %2, ptr noundef %3, ptr noundef %4, ptr noundef %5, ptr noundef %6, ptr noundef %7) #0 {
  %9 = alloca i32, align 4
  %10 = alloca ptr, align 8
  %11 = alloca ptr, align 8
  %12 = alloca ptr, align 8
  %13 = alloca ptr, align 8
  %14 = alloca ptr, align 8
  %15 = alloca ptr, align 8
  %16 = alloca ptr, align 8
  %17 = alloca ptr, align 8
  %18 = alloca ptr, align 8
  %19 = alloca i32, align 4
  %20 = alloca i32, align 4
  store ptr %0, ptr %10, align 8, !tbaa !16
  store ptr %1, ptr %11, align 8, !tbaa !41
  store ptr %2, ptr %12, align 8, !tbaa !113
  store ptr %3, ptr %13, align 8, !tbaa !15
  store ptr %4, ptr %14, align 8, !tbaa !119
  store ptr %5, ptr %15, align 8, !tbaa !58
  store ptr %6, ptr %16, align 8, !tbaa !121
  store ptr %7, ptr %17, align 8, !tbaa !15
  call void @llvm.lifetime.start.p0(i64 8, ptr %18) #10
  br label %21

21:                                               ; preds = %54, %8
  %22 = load ptr, ptr %10, align 8, !tbaa !16
  %23 = getelementptr inbounds nuw %struct.ossl_record_layer_st, ptr %22, i32 0, i32 20
  %24 = load i64, ptr %23, align 8, !tbaa !94
  %25 = load ptr, ptr %10, align 8, !tbaa !16
  %26 = getelementptr inbounds nuw %struct.ossl_record_layer_st, ptr %25, i32 0, i32 19
  %27 = load i64, ptr %26, align 8, !tbaa !93
  %28 = icmp uge i64 %24, %27
  br i1 %28, label %29, label %55

29:                                               ; preds = %21
  call void @llvm.lifetime.start.p0(i64 4, ptr %19) #10
  %30 = load ptr, ptr %10, align 8, !tbaa !16
  %31 = getelementptr inbounds nuw %struct.ossl_record_layer_st, ptr %30, i32 0, i32 21
  %32 = load i64, ptr %31, align 8, !tbaa !95
  %33 = load ptr, ptr %10, align 8, !tbaa !16
  %34 = getelementptr inbounds nuw %struct.ossl_record_layer_st, ptr %33, i32 0, i32 19
  %35 = load i64, ptr %34, align 8, !tbaa !93
  %36 = icmp ne i64 %32, %35
  br i1 %36, label %37, label %39

37:                                               ; preds = %29
  call void @ERR_new()
  call void @ERR_set_debug(ptr noundef @.str, i32 noundef 1129, ptr noundef @__func__.tls_read_record)
  %38 = load ptr, ptr %10, align 8, !tbaa !16
  call void (ptr, i32, i32, ptr, ...) @ossl_rlayer_fatal(ptr noundef %38, i32 noundef 80, i32 noundef 321, ptr noundef null)
  store i32 -2, ptr %9, align 4
  store i32 1, ptr %20, align 4
  br label %52

39:                                               ; preds = %29
  %40 = load ptr, ptr %10, align 8, !tbaa !16
  %41 = getelementptr inbounds nuw %struct.ossl_record_layer_st, ptr %40, i32 0, i32 61
  %42 = load ptr, ptr %41, align 8, !tbaa !73
  %43 = getelementptr inbounds nuw %struct.record_functions_st, ptr %42, i32 0, i32 5
  %44 = load ptr, ptr %43, align 8, !tbaa !123
  %45 = load ptr, ptr %10, align 8, !tbaa !16
  %46 = call i32 %44(ptr noundef %45)
  store i32 %46, ptr %19, align 4, !tbaa !18
  %47 = load i32, ptr %19, align 4, !tbaa !18
  %48 = icmp ne i32 %47, 1
  br i1 %48, label %49, label %51

49:                                               ; preds = %39
  %50 = load i32, ptr %19, align 4, !tbaa !18
  store i32 %50, ptr %9, align 4
  store i32 1, ptr %20, align 4
  br label %52

51:                                               ; preds = %39
  store i32 0, ptr %20, align 4
  br label %52

52:                                               ; preds = %51, %49, %37
  call void @llvm.lifetime.end.p0(i64 4, ptr %19) #10
  %53 = load i32, ptr %20, align 4
  switch i32 %53, label %100 [
    i32 0, label %54
  ]

54:                                               ; preds = %52
  br label %21, !llvm.loop !124

55:                                               ; preds = %21
  %56 = load ptr, ptr %10, align 8, !tbaa !16
  %57 = getelementptr inbounds nuw %struct.ossl_record_layer_st, ptr %56, i32 0, i32 18
  %58 = load ptr, ptr %10, align 8, !tbaa !16
  %59 = getelementptr inbounds nuw %struct.ossl_record_layer_st, ptr %58, i32 0, i32 20
  %60 = load i64, ptr %59, align 8, !tbaa !94
  %61 = add i64 %60, 1
  store i64 %61, ptr %59, align 8, !tbaa !94
  %62 = getelementptr inbounds nuw [32 x %struct.tls_rl_record_st], ptr %57, i64 0, i64 %60
  store ptr %62, ptr %18, align 8, !tbaa !13
  %63 = load ptr, ptr %18, align 8, !tbaa !13
  %64 = load ptr, ptr %11, align 8, !tbaa !41
  store ptr %63, ptr %64, align 8, !tbaa !41
  %65 = load ptr, ptr %18, align 8, !tbaa !13
  %66 = getelementptr inbounds nuw %struct.tls_rl_record_st, ptr %65, i32 0, i32 0
  %67 = load i32, ptr %66, align 8, !tbaa !81
  %68 = load ptr, ptr %12, align 8, !tbaa !113
  store i32 %67, ptr %68, align 4, !tbaa !18
  %69 = load ptr, ptr %18, align 8, !tbaa !13
  %70 = getelementptr inbounds nuw %struct.tls_rl_record_st, ptr %69, i32 0, i32 1
  %71 = load i32, ptr %70, align 4, !tbaa !79
  %72 = trunc i32 %71 to i8
  %73 = load ptr, ptr %13, align 8, !tbaa !15
  store i8 %72, ptr %73, align 1, !tbaa !91
  %74 = load ptr, ptr %18, align 8, !tbaa !13
  %75 = getelementptr inbounds nuw %struct.tls_rl_record_st, ptr %74, i32 0, i32 5
  %76 = load ptr, ptr %75, align 8, !tbaa !86
  %77 = load ptr, ptr %18, align 8, !tbaa !13
  %78 = getelementptr inbounds nuw %struct.tls_rl_record_st, ptr %77, i32 0, i32 4
  %79 = load i64, ptr %78, align 8, !tbaa !105
  %80 = getelementptr inbounds nuw i8, ptr %76, i64 %79
  %81 = load ptr, ptr %14, align 8, !tbaa !119
  store ptr %80, ptr %81, align 8, !tbaa !15
  %82 = load ptr, ptr %18, align 8, !tbaa !13
  %83 = getelementptr inbounds nuw %struct.tls_rl_record_st, ptr %82, i32 0, i32 2
  %84 = load i64, ptr %83, align 8, !tbaa !82
  %85 = load ptr, ptr %15, align 8, !tbaa !58
  store i64 %84, ptr %85, align 8, !tbaa !38
  %86 = load ptr, ptr %10, align 8, !tbaa !16
  %87 = getelementptr inbounds nuw %struct.ossl_record_layer_st, ptr %86, i32 0, i32 2
  %88 = load i32, ptr %87, align 8, !tbaa !43
  %89 = icmp ne i32 %88, 0
  br i1 %89, label %90, label %99

90:                                               ; preds = %55
  %91 = load ptr, ptr %18, align 8, !tbaa !13
  %92 = getelementptr inbounds nuw %struct.tls_rl_record_st, ptr %91, i32 0, i32 8
  %93 = load i16, ptr %92, align 8, !tbaa !125
  %94 = load ptr, ptr %16, align 8, !tbaa !121
  store i16 %93, ptr %94, align 2, !tbaa !126
  %95 = load ptr, ptr %17, align 8, !tbaa !15
  %96 = load ptr, ptr %18, align 8, !tbaa !13
  %97 = getelementptr inbounds nuw %struct.tls_rl_record_st, ptr %96, i32 0, i32 9
  %98 = getelementptr inbounds [8 x i8], ptr %97, i64 0, i64 0
  call void @llvm.memcpy.p0.p0.i64(ptr align 1 %95, ptr align 2 %98, i64 8, i1 false)
  br label %99

99:                                               ; preds = %90, %55
  store i32 1, ptr %9, align 4
  store i32 1, ptr %20, align 4
  br label %100

100:                                              ; preds = %99, %52
  call void @llvm.lifetime.end.p0(i64 8, ptr %18) #10
  %101 = load i32, ptr %9, align 4
  ret i32 %101
}