; Function Attrs: nounwind uwtable
define i32 @tls_read_record(ptr noundef %0, ptr noundef writeonly captures(none) %1, ptr noundef writeonly captures(none) %2, ptr noundef writeonly captures(none) %3, ptr noundef writeonly captures(none) %4, ptr noundef writeonly captures(none) %5, ptr noundef writeonly captures(none) %6, ptr noundef writeonly captures(none) %7) #0 {
  %9 = getelementptr inbounds nuw i8, ptr %0, i64 4056
  %10 = getelementptr inbounds nuw i8, ptr %0, i64 4048
  %11 = getelementptr inbounds nuw i8, ptr %0, i64 4064
  %12 = getelementptr inbounds nuw i8, ptr %0, i64 4424
  br label %13

13:                                               ; preds = %18, %8
  %14 = load i64, ptr %9, align 8, !tbaa !95
  %15 = load i64, ptr %10, align 8, !tbaa !88
  %.not = icmp ult i64 %14, %15
  br i1 %.not, label %23, label %16

16:                                               ; preds = %13
  %17 = load i64, ptr %11, align 8, !tbaa !96
  %.not33 = icmp eq i64 %17, %15
  br i1 %.not33, label %18, label %.thread

.thread:                                          ; preds = %16
  tail call void @ERR_new() #13
  tail call void @ERR_set_debug(ptr noundef nonnull @.str, i32 noundef 1129, ptr noundef nonnull @__func__.tls_read_record) #13
  tail call void (ptr, i32, i32, ptr, ...) @ossl_rlayer_fatal(ptr noundef nonnull %0, i32 noundef 80, i32 noundef 321, ptr noundef null)
  br label %.loopexit

18:                                               ; preds = %16
  %19 = load ptr, ptr %12, align 8, !tbaa !56
  %20 = getelementptr inbounds nuw i8, ptr %19, i64 40
  %21 = load ptr, ptr %20, align 8, !tbaa !97
  %22 = tail call i32 %21(ptr noundef nonnull %0) #13
  %.not34 = icmp eq i32 %22, 1
  br i1 %.not34, label %13, label %.loopexit, !llvm.loop !98

23:                                               ; preds = %13
  %24 = getelementptr inbounds nuw i8, ptr %0, i64 1744
  %25 = add nuw i64 %14, 1
  store i64 %25, ptr %9, align 8, !tbaa !95
  %26 = getelementptr inbounds nuw [32 x %struct.tls_rl_record_st], ptr %24, i64 0, i64 %14
  store ptr %26, ptr %1, align 8, !tbaa !29
  %27 = load i32, ptr %26, align 8, !tbaa !64
  store i32 %27, ptr %2, align 4, !tbaa !28
  %28 = getelementptr inbounds nuw i8, ptr %26, i64 4
  %29 = load i32, ptr %28, align 4, !tbaa !62
  %30 = trunc i32 %29 to i8
  store i8 %30, ptr %3, align 1, !tbaa !59
  %31 = getelementptr inbounds nuw i8, ptr %26, i64 32
  %32 = load ptr, ptr %31, align 8, !tbaa !69
  %33 = getelementptr inbounds nuw i8, ptr %26, i64 24
  %34 = load i64, ptr %33, align 8, !tbaa !85
  %35 = getelementptr inbounds nuw i8, ptr %32, i64 %34
  store ptr %35, ptr %4, align 8, !tbaa !27
  %36 = getelementptr inbounds nuw i8, ptr %26, i64 8
  %37 = load i64, ptr %36, align 8, !tbaa !65
  store i64 %37, ptr %5, align 8, !tbaa !24
  %38 = getelementptr inbounds nuw i8, ptr %0, i64 16
  %39 = load i32, ptr %38, align 8, !tbaa !30
  %.not32 = icmp eq i32 %39, 0
  br i1 %.not32, label %.loopexit, label %40

40:                                               ; preds = %23
  %41 = getelementptr inbounds nuw i8, ptr %26, i64 56
  %42 = load i16, ptr %41, align 8, !tbaa !99
  store i16 %42, ptr %6, align 2, !tbaa !100
  %43 = getelementptr inbounds nuw i8, ptr %26, i64 58
  %44 = load i64, ptr %43, align 2
  store i64 %44, ptr %7, align 1
  br label %.loopexit

.loopexit:                                        ; preds = %18, %.thread, %23, %40
  %.2 = phi i32 [ 1, %40 ], [ 1, %23 ], [ -2, %.thread ], [ %22, %18 ]
  ret i32 %.2
}